target datalayout = "e-m:e-p270:32:32-p271:32:32-p272:64:64-i64:64-i128:128-f80:128-n8:16:32:64-S128"
target triple = "x86_64-pc-linux-gnu"

%struct.UCharIterator = type { ptr, i32, i32, i32, i32, i32, ptr, ptr, ptr, ptr, ptr, ptr, ptr, ptr, ptr, ptr }

; Function Attrs: inlinehint mustprogress uwtable
define linkonce_odr noundef i32 @_ZNK6icu_7711Replaceable6lengthEv(ptr noundef nonnull align 8 dereferenceable(8) %0) #4 comdat align 2 {
  %2 = alloca ptr, align 8
  store ptr %0, ptr %2, align 8, !tbaa !25
  %3 = load ptr, ptr %2, align 8
  %4 = load ptr, ptr %3, align 8, !tbaa !27
  %5 = getelementptr inbounds ptr, ptr %4, i64 8
  %6 = load ptr, ptr %5, align 8
  %7 = call noundef i32 %6(ptr noundef nonnull align 8 dereferenceable(8) %3)
  ret i32 %7
}

; Function Attrs: mustprogress uwtable
define void @uiter_setReplaceable_77(ptr noundef %0, ptr noundef %1) #0 {
  %3 = alloca ptr, align 8
  %4 = alloca ptr, align 8
  store ptr %0, ptr %3, align 8, !tbaa !3
  store ptr %1, ptr %4, align 8, !tbaa !25
  %5 = load ptr, ptr %3, align 8, !tbaa !3
  %6 = icmp ne ptr %5, null
  br i1 %6, label %7, label %24

7:                                                ; preds = %2
  %8 = load ptr, ptr %4, align 8, !tbaa !25
  %9 = icmp ne ptr %8, null
  br i1 %9, label %10, label %21

10:                                               ; preds = %7
  %11 = load ptr, ptr %3, align 8, !tbaa !3
  call void @llvm.memcpy.p0.p0.i64(ptr align 8 %11, ptr align 8 @_ZL19replaceableIterator, i64 112, i1 false), !tbaa.struct !12
  %12 = load ptr, ptr %4, align 8, !tbaa !25
  %13 = load ptr, ptr %3, align 8, !tbaa !3
  %14 = getelementptr inbounds nuw %struct.UCharIterator, ptr %13, i32 0, i32 0
  store ptr %12, ptr %14, align 8, !tbaa !14
  %15 = load ptr, ptr %4, align 8, !tbaa !25
  %16 = call noundef i32 @_ZNK6icu_7711Replaceable6lengthEv(ptr noundef nonnull align 8 dereferenceable(8) %15)
  %17 = load ptr, ptr %3, align 8, !tbaa !3
  %18 = getelementptr inbounds nuw %struct.UCharIterator, ptr %17, i32 0, i32 1
  store i32 %16, ptr %18, align 8, !tbaa !16
  %19 = load ptr, ptr %3, align 8, !tbaa !3
  %20 = getelementptr inbounds nuw %struct.UCharIterator, ptr %19, i32 0, i32 4
  store i32 %16, ptr %20, align 4, !tbaa !17
  br label %23

21:                                               ; preds = %7
  %22 = load ptr, ptr %3, align 8, !tbaa !3
  call void @llvm.memcpy.p0.p0.i64(ptr align 8 %22, ptr align 8 @_ZL12noopIterator, i64 112, i1 false), !tbaa.struct !12
  br label %23

23:                                               ; preds = %21, %10
  br label %24

24:                                               ; preds = %23, %2
  ret void
}