; Function Attrs: mustprogress uwtable
define void @uiter_setReplaceable_77(ptr noundef writeonly %0, ptr noundef %1) local_unnamed_addr #0 {
  %.not = icmp eq ptr %0, null
  br i1 %.not, label %12, label %3

3:                                                ; preds = %2
  %.not10 = icmp eq ptr %1, null
  br i1 %.not10, label %11, label %4

4:                                                ; preds = %3
  tail call void @llvm.memcpy.p0.p0.i64(ptr noundef nonnull align 8 dereferenceable(112) %0, ptr noundef nonnull align 8 dereferenceable(112) @_ZL19replaceableIterator, i64 112, i1 false), !tbaa.struct !3
  store ptr %1, ptr %0, align 8, !tbaa !10
  %5 = load ptr, ptr %1, align 8, !tbaa !17
  %6 = getelementptr inbounds nuw i8, ptr %5, i64 64
  %7 = load ptr, ptr %6, align 8
  %8 = tail call noundef i32 %7(ptr noundef nonnull align 8 dereferenceable(8) %1)
  %9 = getelementptr inbounds nuw i8, ptr %0, i64 8
  store i32 %8, ptr %9, align 8, !tbaa !12
  %10 = getelementptr inbounds nuw i8, ptr %0, i64 20
  store i32 %8, ptr %10, align 4, !tbaa !13
  br label %12

11:                                               ; preds = %3
  tail call void @llvm.memcpy.p0.p0.i64(ptr noundef nonnull align 8 dereferenceable(112) %0, ptr noundef nonnull align 8 dereferenceable(112) @_ZL12noopIterator, i64 112, i1 false), !tbaa.struct !3
  br label %12

12:                                               ; preds = %4, %11, %2
  ret void
}